; ModuleID = '48/115.c'
source_filename = "48/115.c"
target datalayout = "e-m:e-p270:32:32-p271:32:32-p272:64:64-i64:64-f80:128-n8:16:32:64-S128"
target triple = "x86_64-pc-linux-gnu"

@dx = dso_local global [8 x i32] [i32 -1, i32 -1, i32 -1, i32 0, i32 0, i32 1, i32 1, i32 1], align 16
@dy = dso_local global [8 x i32] [i32 -1, i32 0, i32 1, i32 -1, i32 1, i32 -1, i32 0, i32 1], align 16
@.str = private unnamed_addr constant [5 x i8] c"%d%d\00", align 1
@.str.1 = private unnamed_addr constant [4 x i8] c"%d \00", align 1
@.str.2 = private unnamed_addr constant [4 x i8] c"%d\0A\00", align 1

; Function Attrs: noinline nounwind uwtable
define dso_local i32 @main() #0 {
  %1 = alloca i32, align 4
  %2 = alloca [11 x [11 x i32]], align 16
  %3 = alloca [11 x [11 x i32]], align 16
  %4 = alloca i32, align 4
  %5 = alloca i32, align 4
  %6 = alloca i32, align 4
  %7 = alloca i32, align 4
  %8 = alloca i32, align 4
  store i32 0, i32* %1, align 4
  %9 = call i32 (i8*, ...) @__isoc99_scanf(i8* getelementptr inbounds ([5 x i8], [5 x i8]* @.str, i64 0, i64 0), i32* %4, i32* %5)
  %10 = getelementptr inbounds [11 x [11 x i32]], [11 x [11 x i32]]* %2, i64 0, i64 0
  %11 = bitcast [11 x i32]* %10 to i8*
  call void @llvm.memset.p0i8.i64(i8* align 16 %11, i8 0, i64 484, i1 false)
  %12 = load i32, i32* %4, align 4
  %13 = getelementptr inbounds [11 x [11 x i32]], [11 x [11 x i32]]* %2, i64 0, i64 5
  %14 = getelementptr inbounds [11 x i32], [11 x i32]* %13, i64 0, i64 5
  store i32 %12, i32* %14, align 4
  br label %15

15:                                               ; preds = %86, %0
  %16 = load i32, i32* %5, align 4
  %17 = add nsw i32 %16, -1
  store i32 %17, i32* %5, align 4
  %18 = icmp ne i32 %16, 0
  br i1 %18, label %19, label %91

19:                                               ; preds = %15
  %20 = getelementptr inbounds [11 x [11 x i32]], [11 x [11 x i32]]* %3, i64 0, i64 0
  %21 = bitcast [11 x i32]* %20 to i8*
  call void @llvm.memset.p0i8.i64(i8* align 16 %21, i8 0, i64 484, i1 false)
  store i32 1, i32* %6, align 4
  br label %22

22:                                               ; preds = %83, %19
  %23 = load i32, i32* %6, align 4
  %24 = icmp sle i32 %23, 9
  br i1 %24, label %25, label %86

25:                                               ; preds = %22
  store i32 1, i32* %7, align 4
  br label %26

26:                                               ; preds = %79, %25
  %27 = load i32, i32* %7, align 4
  %28 = icmp sle i32 %27, 9
  br i1 %28, label %29, label %82

29:                                               ; preds = %26
  %30 = load i32, i32* %6, align 4
  %31 = sext i32 %30 to i64
  %32 = getelementptr inbounds [11 x [11 x i32]], [11 x [11 x i32]]* %2, i64 0, i64 %31
  %33 = load i32, i32* %7, align 4
  %34 = sext i32 %33 to i64
  %35 = getelementptr inbounds [11 x i32], [11 x i32]* %32, i64 0, i64 %34
  %36 = load i32, i32* %35, align 4
  %37 = mul nsw i32 %36, 2
  %38 = load i32, i32* %6, align 4
  %39 = sext i32 %38 to i64
  %40 = getelementptr inbounds [11 x [11 x i32]], [11 x [11 x i32]]* %3, i64 0, i64 %39
  %41 = load i32, i32* %7, align 4
  %42 = sext i32 %41 to i64
  %43 = getelementptr inbounds [11 x i32], [11 x i32]* %40, i64 0, i64 %42
  %44 = load i32, i32* %43, align 4
  %45 = add nsw i32 %44, %37
  store i32 %45, i32* %43, align 4
  store i32 0, i32* %8, align 4
  br label %46

46:                                               ; preds = %75, %29
  %47 = load i32, i32* %8, align 4
  %48 = icmp slt i32 %47, 8
  br i1 %48, label %49, label %78

49:                                               ; preds = %46
  %50 = load i32, i32* %6, align 4
  %51 = sext i32 %50 to i64
  %52 = getelementptr inbounds [11 x [11 x i32]], [11 x [11 x i32]]* %2, i64 0, i64 %51
  %53 = load i32, i32* %7, align 4
  %54 = sext i32 %53 to i64
  %55 = getelementptr inbounds [11 x i32], [11 x i32]* %52, i64 0, i64 %54
  %56 = load i32, i32* %55, align 4
  %57 = load i32, i32* %6, align 4
  %58 = load i32, i32* %8, align 4
  %59 = sext i32 %58 to i64
  %60 = getelementptr inbounds [8 x i32], [8 x i32]* @dx, i64 0, i64 %59
  %61 = load i32, i32* %60, align 4
  %62 = add nsw i32 %57, %61
  %63 = sext i32 %62 to i64
  %64 = getelementptr inbounds [11 x [11 x i32]], [11 x [11 x i32]]* %3, i64 0, i64 %63
  %65 = load i32, i32* %7, align 4
  %66 = load i32, i32* %8, align 4
  %67 = sext i32 %66 to i64
  %68 = getelementptr inbounds [8 x i32], [8 x i32]* @dy, i64 0, i64 %67
  %69 = load i32, i32* %68, align 4
  %70 = add nsw i32 %65, %69
  %71 = sext i32 %70 to i64
  %72 = getelementptr inbounds [11 x i32], [11 x i32]* %64, i64 0, i64 %71
  %73 = load i32, i32* %72, align 4
  %74 = add nsw i32 %73, %56
  store i32 %74, i32* %72, align 4
  br label %75

75:                                               ; preds = %49
  %76 = load i32, i32* %8, align 4
  %77 = add nsw i32 %76, 1
  store i32 %77, i32* %8, align 4
  br label %46

78:                                               ; preds = %46
  br label %79

79:                                               ; preds = %78
  %80 = load i32, i32* %7, align 4
  %81 = add nsw i32 %80, 1
  store i32 %81, i32* %7, align 4
  br label %26

82:                                               ; preds = %26
  br label %83

83:                                               ; preds = %82
  %84 = load i32, i32* %6, align 4
  %85 = add nsw i32 %84, 1
  store i32 %85, i32* %6, align 4
  br label %22

86:                                               ; preds = %22
  %87 = getelementptr inbounds [11 x [11 x i32]], [11 x [11 x i32]]* %2, i64 0, i64 0
  %88 = bitcast [11 x i32]* %87 to i8*
  %89 = getelementptr inbounds [11 x [11 x i32]], [11 x [11 x i32]]* %3, i64 0, i64 0
  %90 = bitcast [11 x i32]* %89 to i8*
  call void @llvm.memcpy.p0i8.p0i8.i64(i8* align 16 %88, i8* align 16 %90, i64 484, i1 false)
  br label %15

91:                                               ; preds = %15
  store i32 1, i32* %6, align 4
  br label %92

92:                                               ; preds = %118, %91
  %93 = load i32, i32* %6, align 4
  %94 = icmp sle i32 %93, 9
  br i1 %94, label %95, label %121

95:                                               ; preds = %92
  store i32 1, i32* %7, align 4
  br label %96

96:                                               ; preds = %108, %95
  %97 = load i32, i32* %7, align 4
  %98 = icmp slt i32 %97, 9
  br i1 %98, label %99, label %111

99:                                               ; preds = %96
  %100 = load i32, i32* %6, align 4
  %101 = sext i32 %100 to i64
  %102 = getelementptr inbounds [11 x [11 x i32]], [11 x [11 x i32]]* %2, i64 0, i64 %101
  %103 = load i32, i32* %7, align 4
  %104 = sext i32 %103 to i64
  %105 = getelementptr inbounds [11 x i32], [11 x i32]* %102, i64 0, i64 %104
  %106 = load i32, i32* %105, align 4
  %107 = call i32 (i8*, ...) @printf(i8* getelementptr inbounds ([4 x i8], [4 x i8]* @.str.1, i64 0, i64 0), i32 %106)
  br label %108

108:                                              ; preds = %99
  %109 = load i32, i32* %7, align 4
  %110 = add nsw i32 %109, 1
  store i32 %110, i32* %7, align 4
  br label %96

111:                                              ; preds = %96
  %112 = load i32, i32* %6, align 4
  %113 = sext i32 %112 to i64
  %114 = getelementptr inbounds [11 x [11 x i32]], [11 x [11 x i32]]* %2, i64 0, i64 %113
  %115 = getelementptr inbounds [11 x i32], [11 x i32]* %114, i64 0, i64 9
  %116 = load i32, i32* %115, align 4
  %117 = call i32 (i8*, ...) @printf(i8* getelementptr inbounds ([4 x i8], [4 x i8]* @.str.2, i64 0, i64 0), i32 %116)
  br label %118

118:                                              ; preds = %111
  %119 = load i32, i32* %6, align 4
  %120 = add nsw i32 %119, 1
  store i32 %120, i32* %6, align 4
  br label %92

121:                                              ; preds = %92
  ret i32 0
}

declare dso_local i32 @__isoc99_scanf(i8*, ...) #1

; Function Attrs: argmemonly nounwind willreturn
declare void @llvm.memset.p0i8.i64(i8* nocapture writeonly, i8, i64, i1 immarg) #2

; Function Attrs: argmemonly nounwind willreturn
declare void @llvm.memcpy.p0i8.p0i8.i64(i8* noalias nocapture writeonly, i8* noalias nocapture readonly, i64, i1 immarg) #2

declare dso_local i32 @printf(i8*, ...) #1


!llvm.module.flags = !{!0}
!llvm.ident = !{!1}

!0 = !{i32 1, !"wchar_size", i32 4}
!1 = !{!"clang version 10.0.0-4ubuntu1 "}
